; ModuleID = 'source-C-CXX/59/1030.c'
source_filename = "source-C-CXX/59/1030.c"
target datalayout = "e-m:e-p270:32:32-p271:32:32-p272:64:64-i64:64-f80:128-n8:16:32:64-S128"
target triple = "x86_64-pc-linux-gnu"

@.str = private unnamed_addr constant [3 x i8] c"%d\00", align 1
@.str.1 = private unnamed_addr constant [7 x i8] c"%d %d\0A\00", align 1
@.str.2 = private unnamed_addr constant [6 x i8] c"empty\00", align 1

; Function Attrs: nofree nounwind sspstrong uwtable
define dso_local i32 @main() local_unnamed_addr #0 {
  %1 = alloca i32, align 4
  %2 = alloca [10000 x i32], align 16
  %3 = bitcast i32* %1 to i8*
  call void @llvm.lifetime.start.p0i8(i64 4, i8* nonnull %3) #4
  %4 = bitcast [10000 x i32]* %2 to i8*
  call void @llvm.lifetime.start.p0i8(i64 40000, i8* nonnull %4) #4
  %5 = call i32 (i8*, ...) @__isoc99_scanf(i8* getelementptr inbounds ([3 x i8], [3 x i8]* @.str, i64 0, i64 0), i32* nonnull %1)
  %6 = load i32, i32* %1, align 4, !tbaa !5
  %7 = icmp slt i32 %6, 2
  br i1 %7, label %56, label %15

8:                                                ; preds = %35
  %9 = icmp sgt i32 %36, 1
  br i1 %9, label %10, label %56

10:                                               ; preds = %8
  %11 = add nsw i32 %36, -1
  %12 = zext i32 %11 to i64
  %13 = getelementptr inbounds [10000 x i32], [10000 x i32]* %2, i64 0, i64 0
  %14 = load i32, i32* %13, align 16, !tbaa !5
  br label %40

15:                                               ; preds = %0, %35
  %16 = phi i32 [ %36, %35 ], [ 0, %0 ]
  %17 = phi i32 [ %37, %35 ], [ 2, %0 ]
  %18 = sitofp i32 %17 to double
  %19 = call double @sqrt(double %18) #4
  %20 = fptosi double %19 to i32
  %21 = icmp slt i32 %20, 1
  br i1 %21, label %31, label %25

22:                                               ; preds = %25
  %23 = add nuw i32 %26, 1
  %24 = icmp eq i32 %26, %20
  br i1 %24, label %31, label %25, !llvm.loop !9

25:                                               ; preds = %15, %22
  %26 = phi i32 [ %23, %22 ], [ 1, %15 ]
  %27 = urem i32 %17, %26
  %28 = icmp eq i32 %27, 0
  %29 = icmp ne i32 %26, 1
  %30 = and i1 %29, %28
  br i1 %30, label %35, label %22

31:                                               ; preds = %22, %15
  %32 = sext i32 %16 to i64
  %33 = getelementptr inbounds [10000 x i32], [10000 x i32]* %2, i64 0, i64 %32
  store i32 %17, i32* %33, align 4, !tbaa !5
  %34 = add nsw i32 %16, 1
  br label %35

35:                                               ; preds = %25, %31
  %36 = phi i32 [ %34, %31 ], [ %16, %25 ]
  %37 = add nuw nsw i32 %17, 1
  %38 = load i32, i32* %1, align 4, !tbaa !5
  %39 = icmp slt i32 %17, %38
  br i1 %39, label %15, label %8, !llvm.loop !11

40:                                               ; preds = %10, %51
  %41 = phi i32 [ %14, %10 ], [ %46, %51 ]
  %42 = phi i64 [ 0, %10 ], [ %44, %51 ]
  %43 = phi i32 [ 0, %10 ], [ %52, %51 ]
  %44 = add nuw nsw i64 %42, 1
  %45 = getelementptr inbounds [10000 x i32], [10000 x i32]* %2, i64 0, i64 %44
  %46 = load i32, i32* %45, align 4, !tbaa !5
  %47 = sub nsw i32 %46, %41
  %48 = icmp eq i32 %47, 2
  br i1 %48, label %49, label %51

49:                                               ; preds = %40
  %50 = call i32 (i8*, ...) @printf(i8* nonnull dereferenceable(1) getelementptr inbounds ([7 x i8], [7 x i8]* @.str.1, i64 0, i64 0), i32 %41, i32 %46)
  br label %51

51:                                               ; preds = %40, %49
  %52 = phi i32 [ 1, %49 ], [ %43, %40 ]
  %53 = icmp eq i64 %44, %12
  br i1 %53, label %54, label %40, !llvm.loop !12

54:                                               ; preds = %51
  %55 = icmp eq i32 %52, 0
  br i1 %55, label %56, label %58

56:                                               ; preds = %0, %8, %54
  %57 = call i32 (i8*, ...) @printf(i8* nonnull dereferenceable(1) getelementptr inbounds ([6 x i8], [6 x i8]* @.str.2, i64 0, i64 0))
  br label %58

58:                                               ; preds = %56, %54
  call void @llvm.lifetime.end.p0i8(i64 40000, i8* nonnull %4) #4
  call void @llvm.lifetime.end.p0i8(i64 4, i8* nonnull %3) #4
  ret i32 0
}

; Function Attrs: argmemonly mustprogress nofree nosync nounwind willreturn
declare void @llvm.lifetime.start.p0i8(i64 immarg, i8* nocapture) #1

; Function Attrs: nofree nounwind
declare noundef i32 @__isoc99_scanf(i8* nocapture noundef readonly, ...) local_unnamed_addr #2

; Function Attrs: nofree nounwind sspstrong uwtable
define dso_local i32 @sushu(i32 %0) local_unnamed_addr #0 {
  %2 = sitofp i32 %0 to double
  %3 = tail call double @sqrt(double %2) #4
  %4 = fptosi double %3 to i32
  %5 = icmp slt i32 %4, 1
  br i1 %5, label %15, label %9

6:                                                ; preds = %9
  %7 = add nuw i32 %10, 1
  %8 = icmp eq i32 %10, %4
  br i1 %8, label %15, label %9, !llvm.loop !9

9:                                                ; preds = %1, %6
  %10 = phi i32 [ %7, %6 ], [ 1, %1 ]
  %11 = srem i32 %0, %10
  %12 = icmp eq i32 %11, 0
  %13 = icmp ne i32 %10, 1
  %14 = and i1 %13, %12
  br i1 %14, label %15, label %6

15:                                               ; preds = %6, %9, %1
  %16 = phi i32 [ 1, %1 ], [ 0, %9 ], [ 1, %6 ]
  ret i32 %16
}

; Function Attrs: nofree nounwind
declare noundef i32 @printf(i8* nocapture noundef readonly, ...) local_unnamed_addr #2

; Function Attrs: argmemonly mustprogress nofree nosync nounwind willreturn
declare void @llvm.lifetime.end.p0i8(i64 immarg, i8* nocapture) #1

; Function Attrs: mustprogress nofree nounwind willreturn
declare double @sqrt(double) local_unnamed_addr #3


!llvm.module.flags = !{!0, !1, !2, !3}
!llvm.ident = !{!4}

!0 = !{i32 1, !"wchar_size", i32 4}
!1 = !{i32 7, !"PIC Level", i32 2}
!2 = !{i32 7, !"PIE Level", i32 2}
!3 = !{i32 7, !"uwtable", i32 1}
!4 = !{!"clang version 13.0.0"}
!5 = !{!6, !6, i64 0}
!6 = !{!"int", !7, i64 0}
!7 = !{!"omnipotent char", !8, i64 0}
!8 = !{!"Simple C/C++ TBAA"}
!9 = distinct !{!9, !10}
!10 = !{!"llvm.loop.mustprogress"}
!11 = distinct !{!11, !10}
!12 = distinct !{!12, !10}
